ccopy_reg
_reconstructor
p0
(cneat.nn.feed_forward
FeedForwardNetwork
p1
c__builtin__
object
p2
Ntp3
Rp4
(dp5
S'input_nodes'
p6
(lp7
I-1
aI-2
aI-3
asS'node_evals'
p8
(lp9
(I0
cneat.activations
tanh_activation
p10
cneat.aggregations
sum_aggregation
p11
F0.35025787146527443
F1.0
(lp12
(I-1
F-0.001277085683065596
tp13
a(I-3
F-1.4910842646104463
tp14
a(I-2
F0.7981230992609315
tp15
atp16
asS'values'
p17
(dp18
I0
F-1.0
sI-2
F48.5
sI-1
F335.5
sI-3
F151.5
ssS'output_nodes'
p19
(lp20
I0
asb.